target datalayout = "e-m:e-p270:32:32-p271:32:32-p272:64:64-i64:64-i128:128-f80:128-n8:16:32:64-S128"
target triple = "x86_64-pc-linux-gnu"

%struct.ssl_st = type { i32, i16, i16, ptr, ptr, ptr, ptr, ptr, i32, i32, ptr, ptr, i32, i32, ptr, ptr, ptr, ptr, ptr, ptr, ptr, ptr, i32, i32, [32 x i8], ptr, ptr, ptr, ptr, ptr, ptr, ptr, i64, %struct.crypto_ex_data_st, ptr, i32, i32, i32, i32, i16, ptr, i32, i64, ptr, ptr, ptr, ptr, ptr, ptr, i32, i32, ptr, ptr, i8, i8, i32 }
%struct.crypto_ex_data_st = type { ptr }
%struct.ssl3_state_st = type { [8 x i8], [8 x i8], [32 x i8], [32 x i8], i8, i8, %struct.ssl3_buffer_st, %struct.ssl3_buffer_st, %struct.ssl3_record_st, i8, i32, i32, i32, i32, ptr, ptr, %struct.env_md_ctx_st, %struct.env_md_ctx_st, i8, i32, [2 x i8], i32, i8, i8, ptr, ptr, ptr, %struct.anon, [64 x i8], i8, [64 x i8], i8, i32, i32, ptr, i64, ptr, i64, i8, [64 x i8] }
%struct.ssl3_buffer_st = type { ptr, i16, i16, i16 }
%struct.ssl3_record_st = type { i8, i16, ptr }
%struct.env_md_ctx_st = type { ptr, ptr, ptr, ptr }
%struct.anon = type { [64 x i8], i32, [64 x i8], i32, i64, i32, ptr, i32, i32, %union.anon, %union.anon.0, i8, i32, ptr, ptr, i64, ptr, i8, i8, i8, i8, i32, i8, ptr, i64, i8, ptr, i8, i8, i8, %struct.ssl_ecdh_ctx_st, ptr, i16 }
%union.anon = type { i32 }
%union.anon.0 = type { i16 }
%struct.ssl_ecdh_ctx_st = type { ptr, ptr }

@.str.1 = private unnamed_addr constant [116 x i8] c"generated/home/dtcxzyw/WorkSpace/Projects/compilers/llvm-opt-benchmark/bench/libquic/libquic/boringssl/ssl/t1_enc.c\00", align 1

; Function Attrs: nounwind uwtable
define internal i32 @tls1_cert_verify_mac(ptr noundef %0, i32 noundef %1, ptr noundef %2) #0 {
  %4 = alloca i32, align 4
  %5 = alloca ptr, align 8
  %6 = alloca i32, align 4
  %7 = alloca ptr, align 8
  %8 = alloca ptr, align 8
  %9 = alloca i32, align 4
  %10 = alloca %struct.env_md_ctx_st, align 8
  %11 = alloca i32, align 4
  store ptr %0, ptr %5, align 8, !tbaa !6
  store i32 %1, ptr %6, align 4, !tbaa !11
  store ptr %2, ptr %7, align 8, !tbaa !57
  call void @llvm.lifetime.start.p0(i64 8, ptr %8) #7
  %12 = load i32, ptr %6, align 4, !tbaa !11
  %13 = icmp eq i32 %12, 4
  br i1 %13, label %14, label %19

14:                                               ; preds = %3
  %15 = load ptr, ptr %5, align 8, !tbaa !6
  %16 = getelementptr inbounds nuw %struct.ssl_st, ptr %15, i32 0, i32 14
  %17 = load ptr, ptr %16, align 8, !tbaa !14
  %18 = getelementptr inbounds nuw %struct.ssl3_state_st, ptr %17, i32 0, i32 17
  store ptr %18, ptr %8, align 8, !tbaa !72
  br label %34

19:                                               ; preds = %3
  %20 = load i32, ptr %6, align 4, !tbaa !11
  %21 = load ptr, ptr %5, align 8, !tbaa !6
  %22 = getelementptr inbounds nuw %struct.ssl_st, ptr %21, i32 0, i32 14
  %23 = load ptr, ptr %22, align 8, !tbaa !14
  %24 = getelementptr inbounds nuw %struct.ssl3_state_st, ptr %23, i32 0, i32 16
  %25 = call i32 @EVP_MD_CTX_type(ptr noundef %24)
  %26 = icmp eq i32 %20, %25
  br i1 %26, label %27, label %32

27:                                               ; preds = %19
  %28 = load ptr, ptr %5, align 8, !tbaa !6
  %29 = getelementptr inbounds nuw %struct.ssl_st, ptr %28, i32 0, i32 14
  %30 = load ptr, ptr %29, align 8, !tbaa !14
  %31 = getelementptr inbounds nuw %struct.ssl3_state_st, ptr %30, i32 0, i32 16
  store ptr %31, ptr %8, align 8, !tbaa !72
  br label %33

32:                                               ; preds = %19
  call void @ERR_put_error(i32 noundef 16, i32 noundef 0, i32 noundef 183, ptr noundef @.str.1, i32 noundef 399)
  store i32 0, ptr %4, align 4
  store i32 1, ptr %9, align 4
  br label %46

33:                                               ; preds = %27
  br label %34

34:                                               ; preds = %33, %14
  call void @llvm.lifetime.start.p0(i64 32, ptr %10) #7
  call void @EVP_MD_CTX_init(ptr noundef %10)
  %35 = load ptr, ptr %8, align 8, !tbaa !72
  %36 = call i32 @EVP_MD_CTX_copy_ex(ptr noundef %10, ptr noundef %35)
  %37 = icmp ne i32 %36, 0
  br i1 %37, label %40, label %38

38:                                               ; preds = %34
  %39 = call i32 @EVP_MD_CTX_cleanup(ptr noundef %10)
  store i32 0, ptr %4, align 4
  store i32 1, ptr %9, align 4
  br label %45

40:                                               ; preds = %34
  call void @llvm.lifetime.start.p0(i64 4, ptr %11) #7
  %41 = load ptr, ptr %7, align 8, !tbaa !57
  %42 = call i32 @EVP_DigestFinal_ex(ptr noundef %10, ptr noundef %41, ptr noundef %11)
  %43 = call i32 @EVP_MD_CTX_cleanup(ptr noundef %10)
  %44 = load i32, ptr %11, align 4, !tbaa !11
  store i32 %44, ptr %4, align 4
  store i32 1, ptr %9, align 4
  call void @llvm.lifetime.end.p0(i64 4, ptr %11) #7
  br label %45

45:                                               ; preds = %40, %38
  call void @llvm.lifetime.end.p0(i64 32, ptr %10) #7
  br label %46

46:                                               ; preds = %45, %32
  call void @llvm.lifetime.end.p0(i64 8, ptr %8) #7
  %47 = load i32, ptr %4, align 4
  ret i32 %47
}