; Function Attrs: nounwind uwtable
define internal i32 @tls1_cert_verify_mac(ptr noundef readonly captures(none) %0, i32 noundef %1, ptr noundef %2) #0 {
  %4 = alloca %struct.env_md_ctx_st, align 8
  %5 = alloca i32, align 4
  %6 = icmp eq i32 %1, 4
  %7 = getelementptr inbounds nuw i8, ptr %0, i64 80
  %8 = load ptr, ptr %7, align 8, !tbaa !6
  br i1 %6, label %9, label %11

9:                                                ; preds = %3
  %10 = getelementptr inbounds nuw i8, ptr %8, i64 208
  br label %19

11:                                               ; preds = %3
  %12 = getelementptr inbounds nuw i8, ptr %8, i64 176
  %13 = tail call i32 @EVP_MD_CTX_type(ptr noundef nonnull %12) #8
  %14 = icmp eq i32 %1, %13
  br i1 %14, label %15, label %18

15:                                               ; preds = %11
  %16 = load ptr, ptr %7, align 8, !tbaa !6
  %17 = getelementptr inbounds nuw i8, ptr %16, i64 176
  br label %19

18:                                               ; preds = %11
  tail call void @ERR_put_error(i32 noundef 16, i32 noundef 0, i32 noundef 183, ptr noundef nonnull @.str.1, i32 noundef 399) #8
  br label %28

19:                                               ; preds = %15, %9
  %.0 = phi ptr [ %10, %9 ], [ %17, %15 ]
  call void @llvm.lifetime.start.p0(i64 32, ptr nonnull %4) #8
  call void @EVP_MD_CTX_init(ptr noundef nonnull %4) #8
  %20 = call i32 @EVP_MD_CTX_copy_ex(ptr noundef nonnull %4, ptr noundef nonnull %.0) #8
  %.not = icmp eq i32 %20, 0
  br i1 %.not, label %21, label %23

21:                                               ; preds = %19
  %22 = call i32 @EVP_MD_CTX_cleanup(ptr noundef nonnull %4) #8
  br label %27

23:                                               ; preds = %19
  call void @llvm.lifetime.start.p0(i64 4, ptr nonnull %5) #8
  %24 = call i32 @EVP_DigestFinal_ex(ptr noundef nonnull %4, ptr noundef %2, ptr noundef nonnull %5) #8
  %25 = call i32 @EVP_MD_CTX_cleanup(ptr noundef nonnull %4) #8
  %26 = load i32, ptr %5, align 4, !tbaa !66
  call void @llvm.lifetime.end.p0(i64 4, ptr nonnull %5) #8
  br label %27

27:                                               ; preds = %23, %21
  %.1 = phi i32 [ %26, %23 ], [ 0, %21 ]
  call void @llvm.lifetime.end.p0(i64 32, ptr nonnull %4) #8
  br label %28

28:                                               ; preds = %27, %18
  %.07 = phi i32 [ %.1, %27 ], [ 0, %18 ]
  ret i32 %.07
}